; Function Attrs: mustprogress nofree norecurse nosync nounwind willreturn memory(readwrite, inaccessiblemem: none) uwtable
define hidden void @_ZN6BitMap15set_large_rangeEmm(ptr nocapture noundef nonnull readonly align 8 dereferenceable(16) %0, i64 noundef %1, i64 noundef %2) local_unnamed_addr #2 align 2 {
  %4 = add i64 %1, 63
  %5 = lshr i64 %4, 6
  %6 = lshr i64 %2, 6
  %7 = add nuw nsw i64 %5, 32
  %.not = icmp ult i64 %7, %6
  br i1 %.not, label %48, label %8

8:                                                ; preds = %3
  %9 = icmp ult i64 %5, %6
  %10 = and i64 %4, -64
  br i1 %9, label %11, label %28

11:                                               ; preds = %8
  %.not.i.i = icmp eq i64 %10, %1
  br i1 %.not.i.i, label %_ZN6BitMap18set_range_of_wordsEmm.exit.i, label %12

12:                                               ; preds = %11
  %13 = and i64 %1, 63
  %notmask.i.i.i = shl nsw i64 -1, %13
  %14 = load ptr, ptr %0, align 8
  %15 = lshr i64 %1, 6
  %16 = getelementptr inbounds i64, ptr %14, i64 %15
  %17 = load i64, ptr %16, align 8
  %18 = or i64 %17, %notmask.i.i.i
  store i64 %18, ptr %16, align 8
  br label %_ZN6BitMap18set_range_of_wordsEmm.exit.i

_ZN6BitMap18set_range_of_wordsEmm.exit.i:         ; preds = %12, %11
  %19 = load ptr, ptr %0, align 8
  %20 = shl nuw nsw i64 %5, 3
  %scevgep.i.i = getelementptr i8, ptr %19, i64 %20
  %21 = sub nsw i64 %6, %5
  %22 = shl nsw i64 %21, 3
  tail call void @llvm.memset.p0.i64(ptr align 8 %scevgep.i.i, i8 -1, i64 %22, i1 false)
  %23 = and i64 %2, 63
  %.not.i19.i = icmp eq i64 %23, 0
  br i1 %.not.i19.i, label %_ZN6BitMap9set_rangeEmm.exit, label %24

24:                                               ; preds = %_ZN6BitMap18set_range_of_wordsEmm.exit.i
  %.neg.i.i.i = shl nsw i64 -1, %23
  %25 = xor i64 %.neg.i.i.i, -1
  %26 = load ptr, ptr %0, align 8
  %27 = getelementptr inbounds i64, ptr %26, i64 %6
  br label %_ZN6BitMap9set_rangeEmm.exit.sink.split

28:                                               ; preds = %8
  %29 = tail call noundef i64 @llvm.umin.i64(i64 %10, i64 %2)
  %.not.i24.i = icmp eq i64 %29, %1
  br i1 %.not.i24.i, label %_ZN6BitMap21set_range_within_wordEmm.exit29.i, label %30

30:                                               ; preds = %28
  %31 = and i64 %1, 63
  %notmask.i.i25.i = shl nsw i64 -1, %31
  %32 = and i64 %29, 63
  %.not.i.i26.i = icmp eq i64 %32, 0
  %.neg.i.i27.i = shl nsw i64 -1, %32
  %33 = xor i64 %.neg.i.i27.i, -1
  %.not7.i28.i = select i1 %.not.i.i26.i, i64 -1, i64 %33
  %34 = and i64 %.not7.i28.i, %notmask.i.i25.i
  %35 = load ptr, ptr %0, align 8
  %36 = lshr i64 %1, 6
  %37 = getelementptr inbounds i64, ptr %35, i64 %36
  %38 = load i64, ptr %37, align 8
  %39 = or i64 %38, %34
  store i64 %39, ptr %37, align 8
  br label %_ZN6BitMap21set_range_within_wordEmm.exit29.i

_ZN6BitMap21set_range_within_wordEmm.exit29.i:    ; preds = %30, %28
  %.not.i30.not.i = icmp ult i64 %10, %2
  br i1 %.not.i30.not.i, label %40, label %_ZN6BitMap9set_rangeEmm.exit

40:                                               ; preds = %_ZN6BitMap21set_range_within_wordEmm.exit29.i
  %41 = and i64 %29, 63
  %notmask.i.i31.i = shl nsw i64 -1, %41
  %42 = and i64 %2, 63
  %.not.i.i32.i = icmp eq i64 %42, 0
  %.neg.i.i33.i = shl nsw i64 -1, %42
  %43 = xor i64 %.neg.i.i33.i, -1
  %.not7.i34.i = select i1 %.not.i.i32.i, i64 -1, i64 %43
  %44 = and i64 %notmask.i.i31.i, %.not7.i34.i
  %45 = load ptr, ptr %0, align 8
  %46 = lshr i64 %29, 6
  %47 = getelementptr inbounds i64, ptr %45, i64 %46
  br label %_ZN6BitMap9set_rangeEmm.exit.sink.split

48:                                               ; preds = %3
  %49 = and i64 %4, -64
  %.not.i = icmp eq i64 %49, %1
  br i1 %.not.i, label %_ZN6BitMap21set_range_within_wordEmm.exit, label %50

50:                                               ; preds = %48
  %51 = and i64 %1, 63
  %notmask.i.i = shl nsw i64 -1, %51
  %52 = load ptr, ptr %0, align 8
  %53 = lshr i64 %1, 6
  %54 = getelementptr inbounds i64, ptr %52, i64 %53
  %55 = load i64, ptr %54, align 8
  %56 = or i64 %55, %notmask.i.i
  store i64 %56, ptr %54, align 8
  br label %_ZN6BitMap21set_range_within_wordEmm.exit

_ZN6BitMap21set_range_within_wordEmm.exit:        ; preds = %48, %50
  %57 = load ptr, ptr %0, align 8
  %58 = getelementptr inbounds i64, ptr %57, i64 %5
  %59 = sub nsw i64 %6, %5
  %60 = shl nsw i64 %59, 3
  tail call void @llvm.memset.p0.i64(ptr align 8 %58, i8 -1, i64 %60, i1 false)
  %61 = and i64 %2, 63
  %.not.i15 = icmp eq i64 %61, 0
  br i1 %.not.i15, label %_ZN6BitMap9set_rangeEmm.exit, label %62

62:                                               ; preds = %_ZN6BitMap21set_range_within_wordEmm.exit
  %.neg.i.i = shl nsw i64 -1, %61
  %63 = xor i64 %.neg.i.i, -1
  %64 = load ptr, ptr %0, align 8
  %65 = getelementptr inbounds i64, ptr %64, i64 %6
  br label %_ZN6BitMap9set_rangeEmm.exit.sink.split

_ZN6BitMap9set_rangeEmm.exit.sink.split:          ; preds = %24, %40, %62
  %.sink = phi ptr [ %65, %62 ], [ %47, %40 ], [ %27, %24 ]
  %.sink22 = phi i64 [ %63, %62 ], [ %44, %40 ], [ %25, %24 ]
  %66 = load i64, ptr %.sink, align 8
  %67 = or i64 %66, %.sink22
  store i64 %67, ptr %.sink, align 8
  br label %_ZN6BitMap9set_rangeEmm.exit

_ZN6BitMap9set_rangeEmm.exit:                     ; preds = %_ZN6BitMap9set_rangeEmm.exit.sink.split, %_ZN6BitMap21set_range_within_wordEmm.exit, %_ZN6BitMap21set_range_within_wordEmm.exit29.i, %_ZN6BitMap18set_range_of_wordsEmm.exit.i
  ret void
}